target datalayout = "e-m:e-p270:32:32-p271:32:32-p272:64:64-i64:64-i128:128-f80:128-n8:16:32:64-S128"
target triple = "x86_64-pc-linux-gnu"

; Function Attrs: nounwind uwtable
define dso_local i32 @Curl_rand(ptr noundef %0, ptr noundef %1, i64 noundef %2) #0 {
  %4 = alloca i32, align 4
  %5 = alloca ptr, align 8
  %6 = alloca ptr, align 8
  %7 = alloca i64, align 8
  %8 = alloca i32, align 4
  %9 = alloca i32, align 4
  %10 = alloca i64, align 8
  store ptr %0, ptr %5, align 8
  store ptr %1, ptr %6, align 8
  store i64 %2, ptr %7, align 8
  store i32 43, ptr %8, align 4
  br label %11

11:                                               ; preds = %3
  br label %12

12:                                               ; preds = %11
  br label %13

13:                                               ; preds = %46, %12
  %14 = load i64, ptr %7, align 8
  %15 = icmp ne i64 %14, 0
  br i1 %15, label %16, label %47

16:                                               ; preds = %13
  %17 = load i64, ptr %7, align 8
  %18 = icmp ult i64 %17, 4
  br i1 %18, label %19, label %21

19:                                               ; preds = %16
  %20 = load i64, ptr %7, align 8
  br label %22

21:                                               ; preds = %16
  br label %22

22:                                               ; preds = %21, %19
  %23 = phi i64 [ %20, %19 ], [ 4, %21 ]
  store i64 %23, ptr %10, align 8
  %24 = load ptr, ptr %5, align 8
  %25 = call i32 @randit(ptr noundef %24, ptr noundef %9)
  store i32 %25, ptr %8, align 4
  %26 = load i32, ptr %8, align 4
  %27 = icmp ne i32 %26, 0
  br i1 %27, label %28, label %30

28:                                               ; preds = %22
  %29 = load i32, ptr %8, align 4
  store i32 %29, ptr %4, align 4
  br label %49

30:                                               ; preds = %22
  br label %31

31:                                               ; preds = %34, %30
  %32 = load i64, ptr %10, align 8
  %33 = icmp ne i64 %32, 0
  br i1 %33, label %34, label %46

34:                                               ; preds = %31
  %35 = load i32, ptr %9, align 4
  %36 = and i32 %35, 255
  %37 = trunc i32 %36 to i8
  %38 = load ptr, ptr %6, align 8
  %39 = getelementptr inbounds i8, ptr %38, i32 1
  store ptr %39, ptr %6, align 8
  store i8 %37, ptr %38, align 1
  %40 = load i32, ptr %9, align 4
  %41 = lshr i32 %40, 8
  store i32 %41, ptr %9, align 4
  %42 = load i64, ptr %7, align 8
  %43 = add i64 %42, -1
  store i64 %43, ptr %7, align 8
  %44 = load i64, ptr %10, align 8
  %45 = add i64 %44, -1
  store i64 %45, ptr %10, align 8
  br label %31, !llvm.loop !5

46:                                               ; preds = %31
  br label %13, !llvm.loop !7

47:                                               ; preds = %13
  %48 = load i32, ptr %8, align 4
  store i32 %48, ptr %4, align 4
  br label %49

49:                                               ; preds = %47, %28
  %50 = load i32, ptr %4, align 4
  ret i32 %50
}

; Function Attrs: nounwind uwtable
define dso_local i32 @Curl_rand_hex(ptr noundef %0, ptr noundef %1, i64 noundef %2) #0 {
  %4 = alloca i32, align 4
  %5 = alloca ptr, align 8
  %6 = alloca ptr, align 8
  %7 = alloca i64, align 8
  %8 = alloca i32, align 4
  %9 = alloca [128 x i8], align 16
  store ptr %0, ptr %5, align 8
  store ptr %1, ptr %6, align 8
  store i64 %2, ptr %7, align 8
  store i32 43, ptr %8, align 4
  br label %10

10:                                               ; preds = %3
  br label %11

11:                                               ; preds = %10
  %12 = load i64, ptr %7, align 8
  %13 = udiv i64 %12, 2
  %14 = icmp uge i64 %13, 128
  br i1 %14, label %19, label %15

15:                                               ; preds = %11
  %16 = load i64, ptr %7, align 8
  %17 = and i64 %16, 1
  %18 = icmp ne i64 %17, 0
  br i1 %18, label %22, label %19

19:                                               ; preds = %15, %11
  br label %20

20:                                               ; preds = %19
  br label %21

21:                                               ; preds = %20
  store i32 43, ptr %4, align 4
  br label %42

22:                                               ; preds = %15
  %23 = load i64, ptr %7, align 8
  %24 = add i64 %23, -1
  store i64 %24, ptr %7, align 8
  %25 = load ptr, ptr %5, align 8
  %26 = getelementptr inbounds [128 x i8], ptr %9, i64 0, i64 0
  %27 = load i64, ptr %7, align 8
  %28 = udiv i64 %27, 2
  %29 = call i32 @Curl_rand(ptr noundef %25, ptr noundef %26, i64 noundef %28)
  store i32 %29, ptr %8, align 4
  %30 = load i32, ptr %8, align 4
  %31 = icmp ne i32 %30, 0
  br i1 %31, label %32, label %34

32:                                               ; preds = %22
  %33 = load i32, ptr %8, align 4
  store i32 %33, ptr %4, align 4
  br label %42

34:                                               ; preds = %22
  %35 = getelementptr inbounds [128 x i8], ptr %9, i64 0, i64 0
  %36 = load i64, ptr %7, align 8
  %37 = udiv i64 %36, 2
  %38 = load ptr, ptr %6, align 8
  %39 = load i64, ptr %7, align 8
  %40 = add i64 %39, 1
  call void @Curl_hexencode(ptr noundef %35, i64 noundef %37, ptr noundef %38, i64 noundef %40)
  %41 = load i32, ptr %8, align 4
  store i32 %41, ptr %4, align 4
  br label %42

42:                                               ; preds = %34, %32, %21
  %43 = load i32, ptr %4, align 4
  ret i32 %43
}