; Function Attrs: nounwind uwtable
define dso_local range(i32 5, 4) i32 @Curl_rand_hex(ptr noundef %0, ptr noundef %1, i64 noundef %2) local_unnamed_addr #0 {
  %4 = alloca i32, align 4
  %5 = alloca [128 x i8], align 16
  %6 = and i64 %2, -255
  %or.cond.not = icmp eq i64 %6, 1
  br i1 %or.cond.not, label %7, label %19

7:                                                ; preds = %3
  %8 = add nsw i64 %2, -1
  %9 = lshr exact i64 %8, 1
  call void @llvm.lifetime.start.p0(i64 4, ptr nonnull %4)
  %.not22.i = icmp eq i64 %8, 0
  br i1 %.not22.i, label %Curl_rand.exit.thread15, label %.lr.ph.i

Curl_rand.exit.thread15:                          ; preds = %7
  call void @llvm.lifetime.end.p0(i64 4, ptr nonnull %4)
  br label %19

.loopexit.i:                                      ; preds = %.preheader.i
  %10 = sub i64 %.01224.i, %11
  %.not.i = icmp eq i64 %10, 0
  br i1 %.not.i, label %Curl_rand.exit.thread, label %.lr.ph.i, !llvm.loop !5

Curl_rand.exit.thread:                            ; preds = %.loopexit.i
  call void @llvm.lifetime.end.p0(i64 4, ptr nonnull %4)
  call void @Curl_hexencode(ptr noundef nonnull %5, i64 noundef %9, ptr noundef %1, i64 noundef %2) #5
  br label %19

.lr.ph.i:                                         ; preds = %7, %.loopexit.i
  %.01224.i = phi i64 [ %10, %.loopexit.i ], [ %9, %7 ]
  %.01323.i = phi ptr [ %15, %.loopexit.i ], [ %5, %7 ]
  %11 = call i64 @llvm.umin.i64(i64 %.01224.i, i64 4)
  %12 = call fastcc i32 @randit(ptr noundef %0, ptr noundef %4)
  %.not17.i = icmp eq i32 %12, 0
  br i1 %.not17.i, label %.preheader.preheader.i, label %Curl_rand.exit

.preheader.preheader.i:                           ; preds = %.lr.ph.i
  %.pre.i = load i32, ptr %4, align 4
  br label %.preheader.i

.preheader.i:                                     ; preds = %.preheader.i, %.preheader.preheader.i
  %13 = phi i32 [ %17, %.preheader.i ], [ %.pre.i, %.preheader.preheader.i ]
  %.021.i = phi i64 [ %18, %.preheader.i ], [ %11, %.preheader.preheader.i ]
  %.11419.i = phi ptr [ %15, %.preheader.i ], [ %.01323.i, %.preheader.preheader.i ]
  %14 = trunc i32 %13 to i8
  %15 = getelementptr inbounds nuw i8, ptr %.11419.i, i64 1
  store i8 %14, ptr %.11419.i, align 1
  %16 = load i32, ptr %4, align 4
  %17 = lshr i32 %16, 8
  store i32 %17, ptr %4, align 4
  %18 = add i64 %.021.i, -1
  %.not18.i = icmp eq i64 %18, 0
  br i1 %.not18.i, label %.loopexit.i, label %.preheader.i, !llvm.loop !7

Curl_rand.exit:                                   ; preds = %.lr.ph.i
  call void @llvm.lifetime.end.p0(i64 4, ptr nonnull %4)
  br label %19

19:                                               ; preds = %Curl_rand.exit, %Curl_rand.exit.thread15, %3, %Curl_rand.exit.thread
  %.0 = phi i32 [ 0, %Curl_rand.exit.thread ], [ 43, %3 ], [ %12, %Curl_rand.exit ], [ 43, %Curl_rand.exit.thread15 ]
  ret i32 %.0
}